target datalayout = "e-m:e-p270:32:32-p271:32:32-p272:64:64-i64:64-i128:128-f80:128-n8:16:32:64-S128"
target triple = "x86_64-pc-linux-gnu"

%"class.vcg::Point3" = type { [3 x float] }
%"class.vcg::Plane3" = type { float, %"class.vcg::Point3" }

; Function Attrs: mustprogress nounwind uwtable
define linkonce_odr noundef float @_ZN3vcg4math4SqrtEf(float noundef %0) #0 comdat {
  %2 = alloca float, align 4
  store float %0, ptr %2, align 4
  %3 = load float, ptr %2, align 4
  %4 = call float @sqrtf(float noundef %3) #7
  ret float %4
}

; Function Attrs: mustprogress nounwind uwtable
define linkonce_odr void @_ZN3vcg6Point3IfEC2Efff(ptr noundef nonnull align 4 dereferenceable(12) %0, float noundef %1, float noundef %2, float noundef %3) unnamed_addr #0 comdat align 2 {
  %5 = alloca ptr, align 8
  %6 = alloca float, align 4
  %7 = alloca float, align 4
  %8 = alloca float, align 4
  store ptr %0, ptr %5, align 8
  store float %1, ptr %6, align 4
  store float %2, ptr %7, align 4
  store float %3, ptr %8, align 4
  %9 = load ptr, ptr %5, align 8
  %10 = load float, ptr %6, align 4
  %11 = getelementptr inbounds %"class.vcg::Point3", ptr %9, i32 0, i32 0
  %12 = getelementptr inbounds [3 x float], ptr %11, i64 0, i64 0
  store float %10, ptr %12, align 4
  %13 = load float, ptr %7, align 4
  %14 = getelementptr inbounds %"class.vcg::Point3", ptr %9, i32 0, i32 0
  %15 = getelementptr inbounds [3 x float], ptr %14, i64 0, i64 1
  store float %13, ptr %15, align 4
  %16 = load float, ptr %8, align 4
  %17 = getelementptr inbounds %"class.vcg::Point3", ptr %9, i32 0, i32 0
  %18 = getelementptr inbounds [3 x float], ptr %17, i64 0, i64 2
  store float %16, ptr %18, align 4
  ret void
}

; Function Attrs: mustprogress nounwind uwtable
define linkonce_odr noundef float @_ZNK3vcg6Point3IfE4NormEv(ptr noundef nonnull align 4 dereferenceable(12) %0) #0 comdat align 2 {
  %2 = alloca ptr, align 8
  store ptr %0, ptr %2, align 8
  %3 = load ptr, ptr %2, align 8
  %4 = getelementptr inbounds %"class.vcg::Point3", ptr %3, i32 0, i32 0
  %5 = getelementptr inbounds [3 x float], ptr %4, i64 0, i64 0
  %6 = load float, ptr %5, align 4
  %7 = getelementptr inbounds %"class.vcg::Point3", ptr %3, i32 0, i32 0
  %8 = getelementptr inbounds [3 x float], ptr %7, i64 0, i64 0
  %9 = load float, ptr %8, align 4
  %10 = getelementptr inbounds %"class.vcg::Point3", ptr %3, i32 0, i32 0
  %11 = getelementptr inbounds [3 x float], ptr %10, i64 0, i64 1
  %12 = load float, ptr %11, align 4
  %13 = getelementptr inbounds %"class.vcg::Point3", ptr %3, i32 0, i32 0
  %14 = getelementptr inbounds [3 x float], ptr %13, i64 0, i64 1
  %15 = load float, ptr %14, align 4
  %16 = fmul float %12, %15
  %17 = call float @llvm.fmuladd.f32(float %6, float %9, float %16)
  %18 = getelementptr inbounds %"class.vcg::Point3", ptr %3, i32 0, i32 0
  %19 = getelementptr inbounds [3 x float], ptr %18, i64 0, i64 2
  %20 = load float, ptr %19, align 4
  %21 = getelementptr inbounds %"class.vcg::Point3", ptr %3, i32 0, i32 0
  %22 = getelementptr inbounds [3 x float], ptr %21, i64 0, i64 2
  %23 = load float, ptr %22, align 4
  %24 = call float @llvm.fmuladd.f32(float %20, float %23, float %17)
  %25 = call noundef float @_ZN3vcg4math4SqrtEf(float noundef %24)
  ret float %25
}

; Function Attrs: mustprogress uwtable
define linkonce_odr { <2 x float>, float } @_ZNK3vcg6Point3IfEplERKS1_(ptr noundef nonnull align 4 dereferenceable(12) %0, ptr noundef nonnull align 4 dereferenceable(12) %1) #3 comdat align 2 {
  %3 = alloca %"class.vcg::Point3", align 4
  %4 = alloca ptr, align 8
  %5 = alloca ptr, align 8
  %6 = alloca { <2 x float>, float }, align 8
  store ptr %0, ptr %4, align 8
  store ptr %1, ptr %5, align 8
  %7 = load ptr, ptr %4, align 8
  %8 = getelementptr inbounds %"class.vcg::Point3", ptr %7, i32 0, i32 0
  %9 = getelementptr inbounds [3 x float], ptr %8, i64 0, i64 0
  %10 = load float, ptr %9, align 4
  %11 = load ptr, ptr %5, align 8
  %12 = getelementptr inbounds %"class.vcg::Point3", ptr %11, i32 0, i32 0
  %13 = getelementptr inbounds [3 x float], ptr %12, i64 0, i64 0
  %14 = load float, ptr %13, align 4
  %15 = fadd float %10, %14
  %16 = getelementptr inbounds %"class.vcg::Point3", ptr %7, i32 0, i32 0
  %17 = getelementptr inbounds [3 x float], ptr %16, i64 0, i64 1
  %18 = load float, ptr %17, align 4
  %19 = load ptr, ptr %5, align 8
  %20 = getelementptr inbounds %"class.vcg::Point3", ptr %19, i32 0, i32 0
  %21 = getelementptr inbounds [3 x float], ptr %20, i64 0, i64 1
  %22 = load float, ptr %21, align 4
  %23 = fadd float %18, %22
  %24 = getelementptr inbounds %"class.vcg::Point3", ptr %7, i32 0, i32 0
  %25 = getelementptr inbounds [3 x float], ptr %24, i64 0, i64 2
  %26 = load float, ptr %25, align 4
  %27 = load ptr, ptr %5, align 8
  %28 = getelementptr inbounds %"class.vcg::Point3", ptr %27, i32 0, i32 0
  %29 = getelementptr inbounds [3 x float], ptr %28, i64 0, i64 2
  %30 = load float, ptr %29, align 4
  %31 = fadd float %26, %30
  call void @_ZN3vcg6Point3IfEC2Efff(ptr noundef nonnull align 4 dereferenceable(12) %3, float noundef %15, float noundef %23, float noundef %31)
  %32 = getelementptr inbounds %"class.vcg::Point3", ptr %3, i32 0, i32 0
  call void @llvm.memcpy.p0.p0.i64(ptr align 8 %6, ptr align 4 %32, i64 12, i1 false)
  %33 = load { <2 x float>, float }, ptr %6, align 8
  ret { <2 x float>, float } %33
}

; Function Attrs: mustprogress uwtable
define linkonce_odr { <2 x float>, float } @_ZNK3vcg6Point3IfEmlEf(ptr noundef nonnull align 4 dereferenceable(12) %0, float noundef %1) #3 comdat align 2 {
  %3 = alloca %"class.vcg::Point3", align 4
  %4 = alloca ptr, align 8
  %5 = alloca float, align 4
  %6 = alloca { <2 x float>, float }, align 8
  store ptr %0, ptr %4, align 8
  store float %1, ptr %5, align 4
  %7 = load ptr, ptr %4, align 8
  %8 = getelementptr inbounds %"class.vcg::Point3", ptr %7, i32 0, i32 0
  %9 = getelementptr inbounds [3 x float], ptr %8, i64 0, i64 0
  %10 = load float, ptr %9, align 4
  %11 = load float, ptr %5, align 4
  %12 = fmul float %10, %11
  %13 = getelementptr inbounds %"class.vcg::Point3", ptr %7, i32 0, i32 0
  %14 = getelementptr inbounds [3 x float], ptr %13, i64 0, i64 1
  %15 = load float, ptr %14, align 4
  %16 = load float, ptr %5, align 4
  %17 = fmul float %15, %16
  %18 = getelementptr inbounds %"class.vcg::Point3", ptr %7, i32 0, i32 0
  %19 = getelementptr inbounds [3 x float], ptr %18, i64 0, i64 2
  %20 = load float, ptr %19, align 4
  %21 = load float, ptr %5, align 4
  %22 = fmul float %20, %21
  call void @_ZN3vcg6Point3IfEC2Efff(ptr noundef nonnull align 4 dereferenceable(12) %3, float noundef %12, float noundef %17, float noundef %22)
  %23 = getelementptr inbounds %"class.vcg::Point3", ptr %3, i32 0, i32 0
  call void @llvm.memcpy.p0.p0.i64(ptr align 8 %6, ptr align 4 %23, i64 12, i1 false)
  %24 = load { <2 x float>, float }, ptr %6, align 8
  ret { <2 x float>, float } %24
}

; Function Attrs: mustprogress nounwind uwtable
define linkonce_odr noundef nonnull align 4 dereferenceable(12) ptr @_ZNK3vcg6Plane3IfLb1EE9DirectionEv(ptr noundef nonnull align 4 dereferenceable(16) %0) #0 comdat align 2 {
  %2 = alloca ptr, align 8
  store ptr %0, ptr %2, align 8
  %3 = load ptr, ptr %2, align 8
  %4 = getelementptr inbounds %"class.vcg::Plane3", ptr %3, i32 0, i32 1
  ret ptr %4
}

; Function Attrs: mustprogress uwtable
define linkonce_odr noundef nonnull align 4 dereferenceable(12) ptr @_ZN3vcg6Point3IfE9NormalizeEv(ptr noundef nonnull align 4 dereferenceable(12) %0) #3 comdat align 2 {
  %2 = alloca ptr, align 8
  %3 = alloca float, align 4
  store ptr %0, ptr %2, align 8
  %4 = load ptr, ptr %2, align 8
  %5 = getelementptr inbounds %"class.vcg::Point3", ptr %4, i32 0, i32 0
  %6 = getelementptr inbounds [3 x float], ptr %5, i64 0, i64 0
  %7 = load float, ptr %6, align 4
  %8 = getelementptr inbounds %"class.vcg::Point3", ptr %4, i32 0, i32 0
  %9 = getelementptr inbounds [3 x float], ptr %8, i64 0, i64 0
  %10 = load float, ptr %9, align 4
  %11 = getelementptr inbounds %"class.vcg::Point3", ptr %4, i32 0, i32 0
  %12 = getelementptr inbounds [3 x float], ptr %11, i64 0, i64 1
  %13 = load float, ptr %12, align 4
  %14 = getelementptr inbounds %"class.vcg::Point3", ptr %4, i32 0, i32 0
  %15 = getelementptr inbounds [3 x float], ptr %14, i64 0, i64 1
  %16 = load float, ptr %15, align 4
  %17 = fmul float %13, %16
  %18 = call float @llvm.fmuladd.f32(float %7, float %10, float %17)
  %19 = getelementptr inbounds %"class.vcg::Point3", ptr %4, i32 0, i32 0
  %20 = getelementptr inbounds [3 x float], ptr %19, i64 0, i64 2
  %21 = load float, ptr %20, align 4
  %22 = getelementptr inbounds %"class.vcg::Point3", ptr %4, i32 0, i32 0
  %23 = getelementptr inbounds [3 x float], ptr %22, i64 0, i64 2
  %24 = load float, ptr %23, align 4
  %25 = call float @llvm.fmuladd.f32(float %21, float %24, float %18)
  %26 = call noundef float @_ZN3vcg4math4SqrtEf(float noundef %25)
  store float %26, ptr %3, align 4
  %27 = load float, ptr %3, align 4
  %28 = fcmp ogt float %27, 0.000000e+00
  br i1 %28, label %29, label %45

29:                                               ; preds = %1
  %30 = load float, ptr %3, align 4
  %31 = getelementptr inbounds %"class.vcg::Point3", ptr %4, i32 0, i32 0
  %32 = getelementptr inbounds [3 x float], ptr %31, i64 0, i64 0
  %33 = load float, ptr %32, align 4
  %34 = fdiv float %33, %30
  store float %34, ptr %32, align 4
  %35 = load float, ptr %3, align 4
  %36 = getelementptr inbounds %"class.vcg::Point3", ptr %4, i32 0, i32 0
  %37 = getelementptr inbounds [3 x float], ptr %36, i64 0, i64 1
  %38 = load float, ptr %37, align 4
  %39 = fdiv float %38, %35
  store float %39, ptr %37, align 4
  %40 = load float, ptr %3, align 4
  %41 = getelementptr inbounds %"class.vcg::Point3", ptr %4, i32 0, i32 0
  %42 = getelementptr inbounds [3 x float], ptr %41, i64 0, i64 2
  %43 = load float, ptr %42, align 4
  %44 = fdiv float %43, %40
  store float %44, ptr %42, align 4
  br label %45

45:                                               ; preds = %29, %1
  ret ptr %4
}

; Function Attrs: mustprogress uwtable
define linkonce_odr { <2 x float>, float } @_ZNK3vcg6Point3IfEmiERKS1_(ptr noundef nonnull align 4 dereferenceable(12) %0, ptr noundef nonnull align 4 dereferenceable(12) %1) #3 comdat align 2 {
  %3 = alloca %"class.vcg::Point3", align 4
  %4 = alloca ptr, align 8
  %5 = alloca ptr, align 8
  %6 = alloca { <2 x float>, float }, align 8
  store ptr %0, ptr %4, align 8
  store ptr %1, ptr %5, align 8
  %7 = load ptr, ptr %4, align 8
  %8 = getelementptr inbounds %"class.vcg::Point3", ptr %7, i32 0, i32 0
  %9 = getelementptr inbounds [3 x float], ptr %8, i64 0, i64 0
  %10 = load float, ptr %9, align 4
  %11 = load ptr, ptr %5, align 8
  %12 = getelementptr inbounds %"class.vcg::Point3", ptr %11, i32 0, i32 0
  %13 = getelementptr inbounds [3 x float], ptr %12, i64 0, i64 0
  %14 = load float, ptr %13, align 4
  %15 = fsub float %10, %14
  %16 = getelementptr inbounds %"class.vcg::Point3", ptr %7, i32 0, i32 0
  %17 = getelementptr inbounds [3 x float], ptr %16, i64 0, i64 1
  %18 = load float, ptr %17, align 4
  %19 = load ptr, ptr %5, align 8
  %20 = getelementptr inbounds %"class.vcg::Point3", ptr %19, i32 0, i32 0
  %21 = getelementptr inbounds [3 x float], ptr %20, i64 0, i64 1
  %22 = load float, ptr %21, align 4
  %23 = fsub float %18, %22
  %24 = getelementptr inbounds %"class.vcg::Point3", ptr %7, i32 0, i32 0
  %25 = getelementptr inbounds [3 x float], ptr %24, i64 0, i64 2
  %26 = load float, ptr %25, align 4
  %27 = load ptr, ptr %5, align 8
  %28 = getelementptr inbounds %"class.vcg::Point3", ptr %27, i32 0, i32 0
  %29 = getelementptr inbounds [3 x float], ptr %28, i64 0, i64 2
  %30 = load float, ptr %29, align 4
  %31 = fsub float %26, %30
  call void @_ZN3vcg6Point3IfEC2Efff(ptr noundef nonnull align 4 dereferenceable(12) %3, float noundef %15, float noundef %23, float noundef %31)
  %32 = getelementptr inbounds %"class.vcg::Point3", ptr %3, i32 0, i32 0
  call void @llvm.memcpy.p0.p0.i64(ptr align 8 %6, ptr align 4 %32, i64 12, i1 false)
  %33 = load { <2 x float>, float }, ptr %6, align 8
  ret { <2 x float>, float } %33
}

; Function Attrs: mustprogress uwtable
define linkonce_odr noundef float @_ZN3vcg8DistanceIfEET_RKNS_6Point3IS1_EES5_(ptr noundef nonnull align 4 dereferenceable(12) %0, ptr noundef nonnull align 4 dereferenceable(12) %1) #2 comdat {
  %3 = alloca ptr, align 8
  %4 = alloca ptr, align 8
  %5 = alloca %"class.vcg::Point3", align 4
  %6 = alloca { <2 x float>, float }, align 8
  store ptr %0, ptr %3, align 8
  store ptr %1, ptr %4, align 8
  %7 = load ptr, ptr %3, align 8
  %8 = load ptr, ptr %4, align 8
  %9 = call { <2 x float>, float } @_ZNK3vcg6Point3IfEmiERKS1_(ptr noundef nonnull align 4 dereferenceable(12) %7, ptr noundef nonnull align 4 dereferenceable(12) %8)
  %10 = getelementptr inbounds %"class.vcg::Point3", ptr %5, i32 0, i32 0
  store { <2 x float>, float } %9, ptr %6, align 8
  call void @llvm.memcpy.p0.p0.i64(ptr align 4 %10, ptr align 8 %6, i64 12, i1 false)
  %11 = call noundef float @_ZNK3vcg6Point3IfE4NormEv(ptr noundef nonnull align 4 dereferenceable(12) %5)
  ret float %11
}

; Function Attrs: mustprogress uwtable
define noundef zeroext i1 @_ZN3vcg10trackutils13HitHyperOrthoENS_6Point3IfEEfS2_NS_6Plane3IfLb1EEES2_RS2_(<2 x float> %0, float %1, float noundef %2, <2 x float> %3, float %4, <2 x float> %5, <2 x float> %6, ptr noundef byval(%"class.vcg::Point3") align 8 %7, ptr noundef nonnull align 4 dereferenceable(12) %8) #2 {
  %10 = alloca %"class.vcg::Point3", align 4
  %11 = alloca { <2 x float>, float }, align 4
  %12 = alloca %"class.vcg::Point3", align 4
  %13 = alloca { <2 x float>, float }, align 4
  %14 = alloca %"class.vcg::Plane3", align 4
  %15 = alloca float, align 4
  %16 = alloca ptr, align 8
  %17 = alloca float, align 4
  %18 = alloca float, align 4
  %19 = alloca %"class.vcg::Point3", align 4
  %20 = alloca { <2 x float>, float }, align 8
  %21 = alloca %"class.vcg::Point3", align 4
  %22 = alloca %"class.vcg::Point3", align 4
  %23 = alloca %"class.vcg::Point3", align 4
  %24 = alloca %"class.vcg::Point3", align 4
  %25 = alloca { <2 x float>, float }, align 8
  %26 = alloca { <2 x float>, float }, align 8
  %27 = alloca %"class.vcg::Point3", align 4
  %28 = alloca { <2 x float>, float }, align 8
  %29 = alloca { <2 x float>, float }, align 8
  %30 = getelementptr inbounds { <2 x float>, float }, ptr %11, i32 0, i32 0
  store <2 x float> %0, ptr %30, align 4
  %31 = getelementptr inbounds { <2 x float>, float }, ptr %11, i32 0, i32 1
  store float %1, ptr %31, align 4
  call void @llvm.memcpy.p0.p0.i64(ptr align 4 %10, ptr align 4 %11, i64 12, i1 false)
  %32 = getelementptr inbounds { <2 x float>, float }, ptr %13, i32 0, i32 0
  store <2 x float> %3, ptr %32, align 4
  %33 = getelementptr inbounds { <2 x float>, float }, ptr %13, i32 0, i32 1
  store float %4, ptr %33, align 4
  call void @llvm.memcpy.p0.p0.i64(ptr align 4 %12, ptr align 4 %13, i64 12, i1 false)
  %34 = getelementptr inbounds { <2 x float>, <2 x float> }, ptr %14, i32 0, i32 0
  store <2 x float> %5, ptr %34, align 4
  %35 = getelementptr inbounds { <2 x float>, <2 x float> }, ptr %14, i32 0, i32 1
  store <2 x float> %6, ptr %35, align 4
  store float %2, ptr %15, align 4
  store ptr %8, ptr %16, align 8
  %36 = call noundef float @_ZN3vcg8DistanceIfEET_RKNS_6Point3IS1_EES5_(ptr noundef nonnull align 4 dereferenceable(12) %10, ptr noundef nonnull align 4 dereferenceable(12) %7)
  store float %36, ptr %17, align 4
  %37 = load float, ptr %17, align 4
  %38 = fpext float %37 to double
  %39 = fdiv double 1.000000e+00, %38
  %40 = load float, ptr %15, align 4
  %41 = fpext float %40 to double
  %42 = fmul double %39, %41
  %43 = load float, ptr %15, align 4
  %44 = fpext float %43 to double
  %45 = fmul double %42, %44
  %46 = fdiv double %45, 2.000000e+00
  %47 = fptrunc double %46 to float
  store float %47, ptr %18, align 4
  %48 = call { <2 x float>, float } @_ZNK3vcg6Point3IfEmiERKS1_(ptr noundef nonnull align 4 dereferenceable(12) %7, ptr noundef nonnull align 4 dereferenceable(12) %10)
  %49 = getelementptr inbounds %"class.vcg::Point3", ptr %19, i32 0, i32 0
  store { <2 x float>, float } %48, ptr %20, align 8
  call void @llvm.memcpy.p0.p0.i64(ptr align 4 %49, ptr align 8 %20, i64 12, i1 false)
  %50 = call noundef nonnull align 4 dereferenceable(12) ptr @_ZN3vcg6Point3IfE9NormalizeEv(ptr noundef nonnull align 4 dereferenceable(12) %19)
  %51 = call noundef nonnull align 4 dereferenceable(12) ptr @_ZNK3vcg6Plane3IfLb1EE9DirectionEv(ptr noundef nonnull align 4 dereferenceable(16) %14)
  call void @llvm.memcpy.p0.p0.i64(ptr align 4 %21, ptr align 4 %51, i64 12, i1 false)
  %52 = call noundef nonnull align 4 dereferenceable(12) ptr @_ZN3vcg6Point3IfE9NormalizeEv(ptr noundef nonnull align 4 dereferenceable(12) %21)
  %53 = load float, ptr %17, align 4
  %54 = call { <2 x float>, float } @_ZNK3vcg6Point3IfEmlEf(ptr noundef nonnull align 4 dereferenceable(12) %19, float noundef %53)
  %55 = getelementptr inbounds %"class.vcg::Point3", ptr %24, i32 0, i32 0
  store { <2 x float>, float } %54, ptr %25, align 8
  call void @llvm.memcpy.p0.p0.i64(ptr align 4 %55, ptr align 8 %25, i64 12, i1 false)
  %56 = call { <2 x float>, float } @_ZNK3vcg6Point3IfEplERKS1_(ptr noundef nonnull align 4 dereferenceable(12) %10, ptr noundef nonnull align 4 dereferenceable(12) %24)
  %57 = getelementptr inbounds %"class.vcg::Point3", ptr %23, i32 0, i32 0
  store { <2 x float>, float } %56, ptr %26, align 8
  call void @llvm.memcpy.p0.p0.i64(ptr align 4 %57, ptr align 8 %26, i64 12, i1 false)
  %58 = load float, ptr %18, align 4
  %59 = call { <2 x float>, float } @_ZNK3vcg6Point3IfEmlEf(ptr noundef nonnull align 4 dereferenceable(12) %21, float noundef %58)
  %60 = getelementptr inbounds %"class.vcg::Point3", ptr %27, i32 0, i32 0
  store { <2 x float>, float } %59, ptr %28, align 8
  call void @llvm.memcpy.p0.p0.i64(ptr align 4 %60, ptr align 8 %28, i64 12, i1 false)
  %61 = call { <2 x float>, float } @_ZNK3vcg6Point3IfEplERKS1_(ptr noundef nonnull align 4 dereferenceable(12) %23, ptr noundef nonnull align 4 dereferenceable(12) %27)
  %62 = getelementptr inbounds %"class.vcg::Point3", ptr %22, i32 0, i32 0
  store { <2 x float>, float } %61, ptr %29, align 8
  call void @llvm.memcpy.p0.p0.i64(ptr align 4 %62, ptr align 8 %29, i64 12, i1 false)
  %63 = load ptr, ptr %16, align 8
  call void @llvm.memcpy.p0.p0.i64(ptr align 4 %63, ptr align 4 %22, i64 12, i1 false)
  ret i1 true
}