; Function Attrs: mustprogress nofree norecurse nosync nounwind willreturn memory(argmem: readwrite) uwtable
define noundef zeroext i1 @_ZN3vcg10trackutils13HitHyperOrthoENS_6Point3IfEEfS2_NS_6Plane3IfLb1EEES2_RS2_(<2 x float> %0, float %1, float noundef %2, <2 x float> %3, float %4, <2 x float> %5, <2 x float> %6, ptr nocapture noundef readonly byval(%"class.vcg::Point3") align 8 %7, ptr nocapture noundef nonnull writeonly align 4 dereferenceable(12) %8) local_unnamed_addr #18 {
_ZN3vcg6Point3IfE9NormalizeEv.exit:
  %9 = getelementptr inbounds i8, ptr %7, i64 8
  %10 = load float, ptr %9, align 8
  %11 = load <2 x float>, ptr %7, align 8
  %12 = fsub <2 x float> %11, %0
  %13 = fsub float %10, %1
  %14 = fmul <2 x float> %12, %12
  %15 = extractelement <2 x float> %14, i64 1
  %16 = extractelement <2 x float> %12, i64 0
  %17 = tail call float @llvm.fmuladd.f32(float %16, float %16, float %15)
  %18 = tail call float @llvm.fmuladd.f32(float %13, float %13, float %17)
  %sqrt.i = tail call float @llvm.sqrt.f32(float %18)
  %19 = fcmp ogt float %sqrt.i, 0.000000e+00
  %20 = insertelement <2 x float> poison, float %sqrt.i, i64 0
  %21 = shufflevector <2 x float> %20, <2 x float> poison, <2 x i32> zeroinitializer
  %22 = fdiv <2 x float> %12, %21
  %23 = fdiv float %13, %sqrt.i
  %.sroa.055.0 = select i1 %19, <2 x float> %22, <2 x float> %12
  %.sroa.762.0 = select i1 %19, float %23, float %13
  %24 = fsub float %1, %10
  %25 = fsub <2 x float> %0, %11
  %26 = extractelement <2 x float> %25, i64 0
  %27 = fsub <2 x float> %0, %11
  %28 = fmul <2 x float> %27, %27
  %29 = extractelement <2 x float> %28, i64 1
  %30 = tail call float @llvm.fmuladd.f32(float %26, float %26, float %29)
  %31 = tail call float @llvm.fmuladd.f32(float %24, float %24, float %30)
  %sqrt.i.i = tail call noundef float @llvm.sqrt.f32(float %31)
  %32 = fpext float %sqrt.i.i to double
  %33 = fdiv double 1.000000e+00, %32
  %34 = fpext float %2 to double
  %35 = fmul double %33, %34
  %36 = fmul double %35, %34
  %37 = fmul double %36, 5.000000e-01
  %38 = fptrunc double %37 to float
  %.sroa.064.4.vec.extract = extractelement <2 x float> %5, i64 1
  %.sroa.2.12.vec.extract = extractelement <2 x float> %6, i64 1
  %39 = fmul <2 x float> %6, %6
  %40 = extractelement <2 x float> %39, i64 0
  %41 = tail call float @llvm.fmuladd.f32(float %.sroa.064.4.vec.extract, float %.sroa.064.4.vec.extract, float %40)
  %42 = tail call float @llvm.fmuladd.f32(float %.sroa.2.12.vec.extract, float %.sroa.2.12.vec.extract, float %41)
  %sqrt.i29 = tail call float @llvm.sqrt.f32(float %42)
  %43 = fcmp ogt float %sqrt.i29, 0.000000e+00
  %44 = fdiv float %.sroa.2.12.vec.extract, %sqrt.i29
  %.sroa.7.0 = select i1 %43, float %44, float %.sroa.2.12.vec.extract
  %45 = fmul float %sqrt.i.i, %.sroa.762.0
  %46 = fadd float %45, %1
  %47 = fmul float %.sroa.7.0, %38
  %48 = shufflevector <2 x float> %5, <2 x float> %6, <2 x i32> <i32 1, i32 2>
  %49 = insertelement <2 x float> poison, float %sqrt.i29, i64 0
  %50 = shufflevector <2 x float> %49, <2 x float> poison, <2 x i32> zeroinitializer
  %51 = fdiv <2 x float> %48, %50
  %52 = insertelement <2 x i1> poison, i1 %43, i64 0
  %53 = shufflevector <2 x i1> %52, <2 x i1> poison, <2 x i32> zeroinitializer
  %54 = select <2 x i1> %53, <2 x float> %51, <2 x float> %48
  %55 = insertelement <2 x float> poison, float %sqrt.i.i, i64 0
  %56 = shufflevector <2 x float> %55, <2 x float> poison, <2 x i32> zeroinitializer
  %57 = fmul <2 x float> %56, %.sroa.055.0
  %58 = fadd <2 x float> %57, %0
  %59 = insertelement <2 x float> poison, float %38, i64 0
  %60 = shufflevector <2 x float> %59, <2 x float> poison, <2 x i32> zeroinitializer
  %61 = fmul <2 x float> %54, %60
  %62 = fadd <2 x float> %61, %58
  %63 = fadd float %47, %46
  store <2 x float> %62, ptr %8, align 4
  %.sroa.214.0..sroa_idx = getelementptr inbounds i8, ptr %8, i64 8
  store float %63, ptr %.sroa.214.0..sroa_idx, align 4
  ret i1 true
}